target datalayout = "e-m:e-p270:32:32-p271:32:32-p272:64:64-i64:64-i128:128-f80:128-n8:16:32:64-S128"
target triple = "x86_64-pc-linux-gnu"

%class.Register = type { i32 }

@.str = private unnamed_addr constant [42 x i8] c"src/hotspot/cpu/x86/templateTable_x86.cpp\00", align 1
@_ZN13TemplateTable5_masmE = external global ptr, align 8
@_ZL4rbcp = internal constant %class.Register { i32 13 }, align 4
@_ZL3rax = internal constant %class.Register zeroinitializer, align 4
@_ZL3rbx = internal constant %class.Register { i32 3 }, align 4
@_ZL3rcx = internal constant %class.Register { i32 1 }, align 4
@_ZL3rdx = internal constant %class.Register { i32 2 }, align 4
@.str.12 = private unnamed_addr constant [15 x i8] c"broken oop rcx\00", align 1
@PrintInterpreter = external global i8, align 1

; Function Attrs: mustprogress nounwind uwtable
define linkonce_odr hidden void @_ZN14MacroAssembler19_verify_oop_checkedE8RegisterPKcS2_i(ptr noundef nonnull align 8 dereferenceable(40) %0, i32 %1, ptr noundef %2, ptr noundef %3, i32 noundef %4) #1 comdat align 2 {
  %6 = alloca %class.Register, align 4
  %7 = alloca ptr, align 8
  %8 = alloca ptr, align 8
  %9 = alloca ptr, align 8
  %10 = alloca i32, align 4
  %11 = getelementptr inbounds %class.Register, ptr %6, i32 0, i32 0
  store i32 %1, ptr %11, align 4
  store ptr %0, ptr %7, align 8
  store ptr %2, ptr %8, align 8
  store ptr %3, ptr %9, align 8
  store i32 %4, ptr %10, align 4
  ret void
}

; Function Attrs: mustprogress nounwind uwtable
define linkonce_odr hidden noundef ptr @_ZN12Disassembler4hookI25InterpreterMacroAssemblerEEPT_PKciS3_(ptr noundef %0, i32 noundef %1, ptr noundef %2) #1 comdat align 2 {
  %4 = alloca ptr, align 8
  %5 = alloca i32, align 4
  %6 = alloca ptr, align 8
  store ptr %0, ptr %4, align 8
  store i32 %1, ptr %5, align 4
  store ptr %2, ptr %6, align 8
  %7 = load i8, ptr @PrintInterpreter, align 1
  %8 = trunc i8 %7 to i1
  br i1 %8, label %9, label %13

9:                                                ; preds = %3
  %10 = load ptr, ptr %4, align 8
  %11 = load i32, ptr %5, align 4
  %12 = load ptr, ptr %6, align 8
  call void @_ZN12Disassembler5_hookEPKciP14MacroAssembler(ptr noundef %10, i32 noundef %11, ptr noundef %12)
  br label %13

13:                                               ; preds = %9, %3
  %14 = load ptr, ptr %6, align 8
  ret ptr %14
}

; Function Attrs: mustprogress nounwind uwtable
define hidden void @_ZN13TemplateTable13invokespecialEi(i32 noundef %0) #1 align 2 {
  %2 = alloca i32, align 4
  %3 = alloca %class.Register, align 4
  %4 = alloca %class.Register, align 4
  %5 = alloca %class.Register, align 4
  %6 = alloca %class.Register, align 4
  %7 = alloca %class.Register, align 4
  %8 = alloca %class.Register, align 4
  %9 = alloca %class.Register, align 4
  %10 = alloca %class.Register, align 4
  %11 = alloca %class.Register, align 4
  %12 = alloca %class.Register, align 4
  %13 = alloca %class.Register, align 4
  %14 = alloca %class.Register, align 4
  %15 = alloca %class.Register, align 4
  %16 = alloca %class.Register, align 4
  store i32 %0, ptr %2, align 4
  call void @_ZN13TemplateTable10transitionE8TosStateS0_(i32 noundef 9, i32 noundef 9)
  call void @llvm.memcpy.p0.p0.i64(ptr align 4 %3, ptr align 4 @_ZL3rcx, i64 4, i1 false)
  call void @llvm.memcpy.p0.p0.i64(ptr align 4 %4, ptr align 4 @_ZL3rbx, i64 4, i1 false)
  call void @llvm.memcpy.p0.p0.i64(ptr align 4 %5, ptr align 4 @_ZL3rdx, i64 4, i1 false)
  %17 = getelementptr inbounds %class.Register, ptr %3, i32 0, i32 0
  %18 = load i32, ptr %17, align 4
  %19 = getelementptr inbounds %class.Register, ptr %4, i32 0, i32 0
  %20 = load i32, ptr %19, align 4
  %21 = getelementptr inbounds %class.Register, ptr %5, i32 0, i32 0
  %22 = load i32, ptr %21, align 4
  call void @_ZN13TemplateTable44load_resolved_method_entry_special_or_staticE8RegisterS0_S0_(i32 %18, i32 %20, i32 %22)
  call void @llvm.memcpy.p0.p0.i64(ptr align 4 %6, ptr align 4 @_ZL3rcx, i64 4, i1 false)
  call void @llvm.memcpy.p0.p0.i64(ptr align 4 %7, ptr align 4 @_ZL3rcx, i64 4, i1 false)
  call void @llvm.memcpy.p0.p0.i64(ptr align 4 %8, ptr align 4 @_ZL3rdx, i64 4, i1 false)
  %23 = getelementptr inbounds %class.Register, ptr %6, i32 0, i32 0
  %24 = load i32, ptr %23, align 4
  %25 = getelementptr inbounds %class.Register, ptr %7, i32 0, i32 0
  %26 = load i32, ptr %25, align 4
  %27 = getelementptr inbounds %class.Register, ptr %8, i32 0, i32 0
  %28 = load i32, ptr %27, align 4
  call void @_ZN13TemplateTable14prepare_invokeE8RegisterS0_S0_(i32 %24, i32 %26, i32 %28)
  %29 = load ptr, ptr @_ZN13TemplateTable5_masmE, align 8
  %30 = call noundef ptr @_ZN12Disassembler4hookI25InterpreterMacroAssemblerEEPT_PKciS3_(ptr noundef @.str, i32 noundef 3802, ptr noundef %29)
  call void @llvm.memcpy.p0.p0.i64(ptr align 4 %9, ptr align 4 @_ZL3rcx, i64 4, i1 false)
  %31 = getelementptr inbounds %class.Register, ptr %9, i32 0, i32 0
  %32 = load i32, ptr %31, align 4
  call void @_ZN14MacroAssembler19_verify_oop_checkedE8RegisterPKcS2_i(ptr noundef nonnull align 8 dereferenceable(40) %30, i32 %32, ptr noundef @.str.12, ptr noundef @.str, i32 noundef 3802)
  %33 = load ptr, ptr @_ZN13TemplateTable5_masmE, align 8
  %34 = call noundef ptr @_ZN12Disassembler4hookI25InterpreterMacroAssemblerEEPT_PKciS3_(ptr noundef @.str, i32 noundef 3803, ptr noundef %33)
  call void @llvm.memcpy.p0.p0.i64(ptr align 4 %10, ptr align 4 @_ZL3rcx, i64 4, i1 false)
  %35 = getelementptr inbounds %class.Register, ptr %10, i32 0, i32 0
  %36 = load i32, ptr %35, align 4
  call void @_ZN14MacroAssembler10null_checkE8Registeri(ptr noundef nonnull align 8 dereferenceable(40) %34, i32 %36, i32 noundef -1)
  %37 = load ptr, ptr @_ZN13TemplateTable5_masmE, align 8
  %38 = call noundef ptr @_ZN12Disassembler4hookI25InterpreterMacroAssemblerEEPT_PKciS3_(ptr noundef @.str, i32 noundef 3805, ptr noundef %37)
  call void @llvm.memcpy.p0.p0.i64(ptr align 4 %11, ptr align 4 @_ZL3rax, i64 4, i1 false)
  %39 = getelementptr inbounds %class.Register, ptr %11, i32 0, i32 0
  %40 = load i32, ptr %39, align 4
  call void @_ZN25InterpreterMacroAssembler12profile_callE8Register(ptr noundef nonnull align 8 dereferenceable(48) %38, i32 %40)
  %41 = load ptr, ptr @_ZN13TemplateTable5_masmE, align 8
  %42 = call noundef ptr @_ZN12Disassembler4hookI25InterpreterMacroAssemblerEEPT_PKciS3_(ptr noundef @.str, i32 noundef 3806, ptr noundef %41)
  call void @llvm.memcpy.p0.p0.i64(ptr align 4 %12, ptr align 4 @_ZL3rax, i64 4, i1 false)
  call void @llvm.memcpy.p0.p0.i64(ptr align 4 %13, ptr align 4 @_ZL3rbx, i64 4, i1 false)
  call void @llvm.memcpy.p0.p0.i64(ptr align 4 %14, ptr align 4 @_ZL4rbcp, i64 4, i1 false)
  %43 = getelementptr inbounds %class.Register, ptr %12, i32 0, i32 0
  %44 = load i32, ptr %43, align 4
  %45 = getelementptr inbounds %class.Register, ptr %13, i32 0, i32 0
  %46 = load i32, ptr %45, align 4
  %47 = getelementptr inbounds %class.Register, ptr %14, i32 0, i32 0
  %48 = load i32, ptr %47, align 4
  call void @_ZN25InterpreterMacroAssembler22profile_arguments_typeE8RegisterS0_S0_b(ptr noundef nonnull align 8 dereferenceable(48) %42, i32 %44, i32 %46, i32 %48, i1 noundef zeroext false)
  %49 = load ptr, ptr @_ZN13TemplateTable5_masmE, align 8
  %50 = call noundef ptr @_ZN12Disassembler4hookI25InterpreterMacroAssemblerEEPT_PKciS3_(ptr noundef @.str, i32 noundef 3807, ptr noundef %49)
  call void @llvm.memcpy.p0.p0.i64(ptr align 4 %15, ptr align 4 @_ZL3rbx, i64 4, i1 false)
  call void @llvm.memcpy.p0.p0.i64(ptr align 4 %16, ptr align 4 @_ZL3rax, i64 4, i1 false)
  %51 = getelementptr inbounds %class.Register, ptr %15, i32 0, i32 0
  %52 = load i32, ptr %51, align 4
  %53 = getelementptr inbounds %class.Register, ptr %16, i32 0, i32 0
  %54 = load i32, ptr %53, align 4
  call void @_ZN25InterpreterMacroAssembler21jump_from_interpretedE8RegisterS0_(ptr noundef nonnull align 8 dereferenceable(48) %50, i32 %52, i32 %54)
  ret void
}