; Function Attrs: mustprogress nounwind uwtable
define hidden void @_ZN13TemplateTable13invokespecialEi(i32 noundef %0) local_unnamed_addr #0 align 2 {
  tail call void @_ZN13TemplateTable10transitionE8TosStateS0_(i32 noundef 9, i32 noundef 9) #8
  tail call void @_ZN13TemplateTable44load_resolved_method_entry_special_or_staticE8RegisterS0_S0_(i32 1, i32 3, i32 2)
  tail call void @_ZN13TemplateTable14prepare_invokeE8RegisterS0_S0_(i32 1, i32 1, i32 2)
  %2 = load i8, ptr @PrintInterpreter, align 1
  %3 = trunc i8 %2 to i1
  br i1 %3, label %4, label %_ZN12Disassembler4hookI25InterpreterMacroAssemblerEEPT_PKciS3_.exit

4:                                                ; preds = %1
  %5 = load ptr, ptr @_ZN13TemplateTable5_masmE, align 8
  tail call void @_ZN12Disassembler5_hookEPKciP14MacroAssembler(ptr noundef nonnull @.str, i32 noundef 3802, ptr noundef %5) #8
  %.pre = load i8, ptr @PrintInterpreter, align 1
  br label %_ZN12Disassembler4hookI25InterpreterMacroAssemblerEEPT_PKciS3_.exit

_ZN12Disassembler4hookI25InterpreterMacroAssemblerEEPT_PKciS3_.exit: ; preds = %1, %4
  %6 = phi i8 [ %2, %1 ], [ %.pre, %4 ]
  %7 = load ptr, ptr @_ZN13TemplateTable5_masmE, align 8
  %8 = trunc i8 %6 to i1
  br i1 %8, label %9, label %_ZN12Disassembler4hookI25InterpreterMacroAssemblerEEPT_PKciS3_.exit14

9:                                                ; preds = %_ZN12Disassembler4hookI25InterpreterMacroAssemblerEEPT_PKciS3_.exit
  tail call void @_ZN12Disassembler5_hookEPKciP14MacroAssembler(ptr noundef nonnull @.str, i32 noundef 3803, ptr noundef %7) #8
  br label %_ZN12Disassembler4hookI25InterpreterMacroAssemblerEEPT_PKciS3_.exit14

_ZN12Disassembler4hookI25InterpreterMacroAssemblerEEPT_PKciS3_.exit14: ; preds = %_ZN12Disassembler4hookI25InterpreterMacroAssemblerEEPT_PKciS3_.exit, %9
  tail call void @_ZN14MacroAssembler10null_checkE8Registeri(ptr noundef nonnull align 8 dereferenceable(40) %7, i32 1, i32 noundef -1) #8
  %10 = load ptr, ptr @_ZN13TemplateTable5_masmE, align 8
  %11 = load i8, ptr @PrintInterpreter, align 1
  %12 = trunc i8 %11 to i1
  br i1 %12, label %13, label %_ZN12Disassembler4hookI25InterpreterMacroAssemblerEEPT_PKciS3_.exit15

13:                                               ; preds = %_ZN12Disassembler4hookI25InterpreterMacroAssemblerEEPT_PKciS3_.exit14
  tail call void @_ZN12Disassembler5_hookEPKciP14MacroAssembler(ptr noundef nonnull @.str, i32 noundef 3805, ptr noundef %10) #8
  br label %_ZN12Disassembler4hookI25InterpreterMacroAssemblerEEPT_PKciS3_.exit15

_ZN12Disassembler4hookI25InterpreterMacroAssemblerEEPT_PKciS3_.exit15: ; preds = %_ZN12Disassembler4hookI25InterpreterMacroAssemblerEEPT_PKciS3_.exit14, %13
  tail call void @_ZN25InterpreterMacroAssembler12profile_callE8Register(ptr noundef nonnull align 8 dereferenceable(48) %10, i32 0) #8
  %14 = load ptr, ptr @_ZN13TemplateTable5_masmE, align 8
  %15 = load i8, ptr @PrintInterpreter, align 1
  %16 = trunc i8 %15 to i1
  br i1 %16, label %17, label %_ZN12Disassembler4hookI25InterpreterMacroAssemblerEEPT_PKciS3_.exit16

17:                                               ; preds = %_ZN12Disassembler4hookI25InterpreterMacroAssemblerEEPT_PKciS3_.exit15
  tail call void @_ZN12Disassembler5_hookEPKciP14MacroAssembler(ptr noundef nonnull @.str, i32 noundef 3806, ptr noundef %14) #8
  br label %_ZN12Disassembler4hookI25InterpreterMacroAssemblerEEPT_PKciS3_.exit16

_ZN12Disassembler4hookI25InterpreterMacroAssemblerEEPT_PKciS3_.exit16: ; preds = %_ZN12Disassembler4hookI25InterpreterMacroAssemblerEEPT_PKciS3_.exit15, %17
  tail call void @_ZN25InterpreterMacroAssembler22profile_arguments_typeE8RegisterS0_S0_b(ptr noundef nonnull align 8 dereferenceable(48) %14, i32 0, i32 3, i32 13, i1 noundef zeroext false) #8
  %18 = load ptr, ptr @_ZN13TemplateTable5_masmE, align 8
  %19 = load i8, ptr @PrintInterpreter, align 1
  %20 = trunc i8 %19 to i1
  br i1 %20, label %21, label %_ZN12Disassembler4hookI25InterpreterMacroAssemblerEEPT_PKciS3_.exit17

21:                                               ; preds = %_ZN12Disassembler4hookI25InterpreterMacroAssemblerEEPT_PKciS3_.exit16
  tail call void @_ZN12Disassembler5_hookEPKciP14MacroAssembler(ptr noundef nonnull @.str, i32 noundef 3807, ptr noundef %18) #8
  br label %_ZN12Disassembler4hookI25InterpreterMacroAssemblerEEPT_PKciS3_.exit17

_ZN12Disassembler4hookI25InterpreterMacroAssemblerEEPT_PKciS3_.exit17: ; preds = %_ZN12Disassembler4hookI25InterpreterMacroAssemblerEEPT_PKciS3_.exit16, %21
  tail call void @_ZN25InterpreterMacroAssembler21jump_from_interpretedE8RegisterS0_(ptr noundef nonnull align 8 dereferenceable(48) %18, i32 3, i32 0) #8
  ret void
}